target datalayout = "e-m:e-p270:32:32-p271:32:32-p272:64:64-i64:64-i128:128-f80:128-n8:16:32:64-S128"
target triple = "x86_64-pc-linux-gnu"

%struct.ExprState = type { i32, i8, i8, i64, ptr, ptr, ptr, ptr, ptr, i32, i32, ptr, ptr, ptr, ptr, ptr, ptr, ptr }
%struct.ExprEvalStep = type { i64, ptr, ptr, %union.anon }
%union.anon = type { %struct.anon.23 }
%struct.anon.23 = type { ptr, ptr, i32, i32, ptr, ptr }
%struct.ExprContext = type { i32, ptr, ptr, ptr, ptr, ptr, ptr, ptr, ptr, ptr, i64, i8, i64, i8, ptr, ptr, ptr, ptr }
%struct.anon.11 = type { i32, i32 }
%struct.ParamExecData = type { ptr, i64, i8 }

; Function Attrs: nounwind uwtable
define dso_local void @ExecEvalParamSet(ptr noundef %0, ptr noundef %1, ptr noundef %2) #0 {
  %4 = alloca ptr, align 8
  %5 = alloca ptr, align 8
  %6 = alloca ptr, align 8
  %7 = alloca ptr, align 8
  store ptr %0, ptr %4, align 8
  store ptr %1, ptr %5, align 8
  store ptr %2, ptr %6, align 8
  call void @llvm.lifetime.start.p0(i64 8, ptr %7) #11
  %8 = load ptr, ptr %6, align 8
  %9 = getelementptr inbounds nuw %struct.ExprContext, ptr %8, i32 0, i32 6
  %10 = load ptr, ptr %9, align 8
  %11 = load ptr, ptr %5, align 8
  %12 = getelementptr inbounds nuw %struct.ExprEvalStep, ptr %11, i32 0, i32 3
  %13 = getelementptr inbounds nuw %struct.anon.11, ptr %12, i32 0, i32 0
  %14 = load i32, ptr %13, align 8
  %15 = sext i32 %14 to i64
  %16 = getelementptr inbounds %struct.ParamExecData, ptr %10, i64 %15
  store ptr %16, ptr %7, align 8
  %17 = load ptr, ptr %4, align 8
  %18 = getelementptr inbounds nuw %struct.ExprState, ptr %17, i32 0, i32 3
  %19 = load i64, ptr %18, align 8
  %20 = load ptr, ptr %7, align 8
  %21 = getelementptr inbounds nuw %struct.ParamExecData, ptr %20, i32 0, i32 1
  store i64 %19, ptr %21, align 8
  %22 = load ptr, ptr %4, align 8
  %23 = getelementptr inbounds nuw %struct.ExprState, ptr %22, i32 0, i32 2
  %24 = load i8, ptr %23, align 1, !range !7, !noundef !8
  %25 = trunc i8 %24 to i1
  %26 = load ptr, ptr %7, align 8
  %27 = getelementptr inbounds nuw %struct.ParamExecData, ptr %26, i32 0, i32 2
  %28 = zext i1 %25 to i8
  store i8 %28, ptr %27, align 8
  call void @llvm.lifetime.end.p0(i64 8, ptr %7) #11
  ret void
}