; Function Attrs: mustprogress nofree norecurse nosync nounwind willreturn memory(write, argmem: readwrite, inaccessiblemem: none) uwtable
define dso_local void @ExecEvalParamSet(ptr noundef readonly captures(none) %0, ptr noundef readonly captures(none) %1, ptr noundef readonly captures(none) %2) local_unnamed_addr #8 {
  %4 = getelementptr inbounds nuw i8, ptr %2, i64 48
  %5 = load ptr, ptr %4, align 8
  %6 = getelementptr inbounds nuw i8, ptr %1, i64 24
  %7 = load i32, ptr %6, align 8
  %8 = sext i32 %7 to i64
  %9 = getelementptr inbounds %struct.ParamExecData, ptr %5, i64 %8
  %10 = getelementptr inbounds nuw i8, ptr %0, i64 8
  %11 = load i64, ptr %10, align 8
  %12 = getelementptr inbounds nuw i8, ptr %9, i64 8
  store i64 %11, ptr %12, align 8
  %13 = getelementptr inbounds nuw i8, ptr %0, i64 5
  %14 = load i8, ptr %13, align 1, !range !8, !noundef !9
  %15 = getelementptr inbounds nuw i8, ptr %9, i64 16
  store i8 %14, ptr %15, align 8
  ret void
}